; Function Attrs: nounwind uwtable
define dso_local ptr @Curl_cookie_list(ptr noundef %0) local_unnamed_addr #0 {
  %2 = tail call i32 @Curl_share_lock(ptr noundef %0, i32 noundef 2, i32 noundef 2) #13
  %3 = getelementptr inbounds nuw i8, ptr %0, i64 2576
  %4 = load ptr, ptr %3, align 8, !tbaa !79
  %.not.i = icmp eq ptr %4, null
  br i1 %.not.i, label %cookie_list.exit, label %5

5:                                                ; preds = %1
  %6 = getelementptr inbounds nuw i8, ptr %4, i64 2024
  %7 = load i32, ptr %6, align 8, !tbaa !117
  %8 = icmp eq i32 %7, 0
  br i1 %8, label %cookie_list.exit, label %.preheader.i

.preheader.i:                                     ; preds = %5, %._crit_edge.i
  %indvars.iv.i = phi i64 [ %indvars.iv.next.i, %._crit_edge.i ], [ 0, %5 ]
  %.02145.i = phi ptr [ %.122.lcssa.i, %._crit_edge.i ], [ null, %5 ]
  %9 = load ptr, ptr %3, align 8, !tbaa !79
  %10 = getelementptr inbounds nuw [63 x %struct.Curl_llist], ptr %9, i64 0, i64 %indvars.iv.i
  %11 = tail call ptr @Curl_llist_head(ptr noundef %10) #13
  %.not3041.i = icmp eq ptr %11, null
  br i1 %.not3041.i, label %._crit_edge.i, label %.lr.ph.i

.lr.ph.i:                                         ; preds = %.preheader.i, %43
  %.12243.i = phi ptr [ %.223.i, %43 ], [ %.02145.i, %.preheader.i ]
  %.02542.i = phi ptr [ %44, %43 ], [ %11, %.preheader.i ]
  %12 = tail call ptr @Curl_node_elem(ptr noundef nonnull %.02542.i) #13
  %13 = getelementptr inbounds nuw i8, ptr %12, i64 96
  %14 = load ptr, ptr %13, align 8, !tbaa !111
  %.not31.i = icmp eq ptr %14, null
  br i1 %.not31.i, label %43, label %15

15:                                               ; preds = %.lr.ph.i
  %16 = getelementptr inbounds nuw i8, ptr %12, i64 116
  %17 = load i8, ptr %16, align 4
  %18 = and i8 %17, 1
  %.not17.i.i = icmp eq i8 %18, 0
  br i1 %.not17.i.i, label %get_netscape_format.exit.i, label %19

19:                                               ; preds = %15
  %20 = load i8, ptr %14, align 1, !tbaa !92
  %.not19.i.i = icmp eq i8 %20, 46
  %21 = select i1 %.not19.i.i, ptr @.str.32, ptr @.str.35
  br label %get_netscape_format.exit.i

get_netscape_format.exit.i:                       ; preds = %19, %15
  %22 = phi ptr [ @.str.30, %19 ], [ @.str.31, %15 ]
  %23 = phi ptr [ %21, %19 ], [ @.str.32, %15 ]
  %24 = getelementptr inbounds nuw i8, ptr %12, i64 80
  %25 = load ptr, ptr %24, align 8, !tbaa !108
  %.not22.i.i = icmp eq ptr %25, null
  %26 = select i1 %.not22.i.i, ptr @.str.1, ptr %25
  %27 = getelementptr inbounds nuw i8, ptr %12, i64 104
  %28 = load i64, ptr %27, align 8, !tbaa !109
  %29 = getelementptr inbounds nuw i8, ptr %12, i64 64
  %30 = load ptr, ptr %29, align 8, !tbaa !102
  %31 = getelementptr inbounds nuw i8, ptr %12, i64 72
  %32 = load ptr, ptr %31, align 8, !tbaa !112
  %.not24.i.i = icmp eq ptr %32, null
  %33 = select i1 %.not24.i.i, ptr @.str.32, ptr %32
  %34 = and i8 %17, 2
  %.not23.i.i = icmp eq i8 %34, 0
  %35 = select i1 %.not23.i.i, ptr @.str.31, ptr @.str.30
  %36 = and i8 %17, 8
  %.not.i.i = icmp eq i8 %36, 0
  %37 = select i1 %.not.i.i, ptr @.str.32, ptr @.str.28
  %38 = tail call ptr (ptr, ...) @curl_maprintf(ptr noundef nonnull @.str.34, ptr noundef nonnull %37, ptr noundef nonnull %23, ptr noundef nonnull %14, ptr noundef nonnull %22, ptr noundef nonnull %26, ptr noundef nonnull %35, i64 noundef %28, ptr noundef %30, ptr noundef nonnull %33) #13
  %.not32.i = icmp eq ptr %38, null
  br i1 %.not32.i, label %.thread.sink.split.i, label %39

39:                                               ; preds = %get_netscape_format.exit.i
  %40 = tail call ptr @Curl_slist_append_nodup(ptr noundef %.12243.i, ptr noundef nonnull %38) #13
  %.not33.i = icmp eq ptr %40, null
  br i1 %.not33.i, label %41, label %43

41:                                               ; preds = %39
  %42 = load ptr, ptr @Curl_cfree, align 8, !tbaa !86
  tail call void %42(ptr noundef nonnull %38) #13
  br label %.thread.sink.split.i

43:                                               ; preds = %39, %.lr.ph.i
  %.223.i = phi ptr [ %.12243.i, %.lr.ph.i ], [ %40, %39 ]
  %44 = tail call ptr @Curl_node_next(ptr noundef nonnull %.02542.i) #13
  %.not30.i = icmp eq ptr %44, null
  br i1 %.not30.i, label %._crit_edge.i, label %.lr.ph.i, !llvm.loop !130

._crit_edge.i:                                    ; preds = %43, %.preheader.i
  %.122.lcssa.i = phi ptr [ %.02145.i, %.preheader.i ], [ %.223.i, %43 ]
  %indvars.iv.next.i = add nuw nsw i64 %indvars.iv.i, 1
  %exitcond.not.i = icmp eq i64 %indvars.iv.next.i, 63
  br i1 %exitcond.not.i, label %cookie_list.exit, label %.preheader.i, !llvm.loop !131

.thread.sink.split.i:                             ; preds = %get_netscape_format.exit.i, %41
  tail call void @curl_slist_free_all(ptr noundef %.12243.i) #13
  br label %cookie_list.exit

cookie_list.exit:                                 ; preds = %._crit_edge.i, %1, %5, %.thread.sink.split.i
  %.0.i = phi ptr [ null, %5 ], [ null, %1 ], [ null, %.thread.sink.split.i ], [ %.122.lcssa.i, %._crit_edge.i ]
  %45 = tail call i32 @Curl_share_unlock(ptr noundef %0, i32 noundef 2) #13
  ret ptr %.0.i
}